target datalayout = "e-m:e-p270:32:32-p271:32:32-p272:64:64-i64:64-i128:128-f80:128-n8:16:32:64-S128"
target triple = "x86_64-pc-linux-gnu"

%struct.ForEachState = type { ptr, i32 }
%union.ListCell = type { ptr }
%struct.PlannerInfo = type { i32, ptr, ptr, i32, ptr, ptr, ptr, ptr, i32, ptr, ptr, ptr, ptr, ptr, ptr, ptr, ptr, i32, ptr, ptr, ptr, ptr, ptr, i8, ptr, ptr, ptr, ptr, ptr, i32, ptr, ptr, ptr, ptr, ptr, ptr, ptr, i32, ptr, ptr, ptr, i32, ptr, ptr, ptr, ptr, ptr, ptr, [8 x ptr], [8 x ptr], ptr, ptr, ptr, ptr, ptr, ptr, ptr, double, double, double, i32, i8, i8, i8, i8, i8, i8, i8, i32, ptr, ptr, i32, i8, i8, i32, ptr, ptr, ptr, ptr, ptr, ptr, i8, ptr }
%struct.Query = type { i32, i32, i32, i64, i8, ptr, i32, i8, i8, i8, i8, i8, i8, i8, i8, i8, i8, i8, ptr, ptr, ptr, ptr, ptr, i32, ptr, ptr, i32, ptr, ptr, ptr, ptr, ptr, i8, ptr, ptr, ptr, ptr, ptr, ptr, ptr, i32, ptr, ptr, ptr, ptr, i32, i32 }
%struct.List = type { i32, i32, i32, ptr, [0 x %union.ListCell] }
%struct.Expr = type { i32 }
%struct.Node = type { i32 }
%struct.TargetEntry = type { %struct.Expr, ptr, i16, ptr, i32, i32, i16, i8 }
%struct.SubLink = type { %struct.Expr, i32, i32, ptr, ptr, ptr, i32 }
%struct.ParseNamespaceItem = type { ptr, ptr, i32, ptr, ptr, i8, i8, i8, i8, i32 }
%struct.RangeTblRef = type { i32, i32 }
%struct.JoinExpr = type { i32, i32, i8, ptr, ptr, ptr, ptr, ptr, ptr, i32 }
%struct.convert_testexpr_context = type { ptr, ptr }

@.str.3 = private unnamed_addr constant [13 x i8] c"ANY_subquery\00", align 1

; Function Attrs: nounwind uwtable
define internal ptr @convert_testexpr(ptr noundef %0, ptr noundef %1, ptr noundef %2) #0 {
  %4 = alloca ptr, align 8
  %5 = alloca ptr, align 8
  %6 = alloca ptr, align 8
  %7 = alloca %struct.convert_testexpr_context, align 8
  store ptr %0, ptr %4, align 8
  store ptr %1, ptr %5, align 8
  store ptr %2, ptr %6, align 8
  call void @llvm.lifetime.start.p0(i64 16, ptr %7) #8
  %8 = load ptr, ptr %4, align 8
  %9 = getelementptr inbounds nuw %struct.convert_testexpr_context, ptr %7, i32 0, i32 0
  store ptr %8, ptr %9, align 8
  %10 = load ptr, ptr %6, align 8
  %11 = getelementptr inbounds nuw %struct.convert_testexpr_context, ptr %7, i32 0, i32 1
  store ptr %10, ptr %11, align 8
  %12 = load ptr, ptr %5, align 8
  %13 = call ptr @convert_testexpr_mutator(ptr noundef %12, ptr noundef %7)
  call void @llvm.lifetime.end.p0(i64 16, ptr %7) #8
  ret ptr %13
}

; Function Attrs: nounwind uwtable
define internal ptr @generate_subquery_vars(ptr noundef %0, ptr noundef %1, i32 noundef %2) #0 {
  %4 = alloca ptr, align 8
  %5 = alloca ptr, align 8
  %6 = alloca i32, align 4
  %7 = alloca ptr, align 8
  %8 = alloca ptr, align 8
  %9 = alloca %struct.ForEachState, align 8
  %10 = alloca i32, align 4
  %11 = alloca ptr, align 8
  %12 = alloca ptr, align 8
  store ptr %0, ptr %4, align 8
  store ptr %1, ptr %5, align 8
  store i32 %2, ptr %6, align 4
  call void @llvm.lifetime.start.p0(i64 8, ptr %7) #8
  call void @llvm.lifetime.start.p0(i64 8, ptr %8) #8
  store ptr null, ptr %7, align 8
  call void @llvm.lifetime.start.p0(i64 16, ptr %9) #8
  %13 = getelementptr inbounds nuw %struct.ForEachState, ptr %9, i32 0, i32 0
  %14 = load ptr, ptr %5, align 8
  store ptr %14, ptr %13, align 8
  %15 = getelementptr inbounds nuw %struct.ForEachState, ptr %9, i32 0, i32 1
  store i32 0, ptr %15, align 8
  %16 = getelementptr i8, ptr %9, i64 12
  call void @llvm.memset.p0.i64(ptr align 4 %16, i8 0, i64 4, i1 false)
  br label %17

17:                                               ; preds = %61, %3
  %18 = getelementptr inbounds nuw %struct.ForEachState, ptr %9, i32 0, i32 0
  %19 = load ptr, ptr %18, align 8
  %20 = icmp ne ptr %19, null
  br i1 %20, label %21, label %38

21:                                               ; preds = %17
  %22 = getelementptr inbounds nuw %struct.ForEachState, ptr %9, i32 0, i32 1
  %23 = load i32, ptr %22, align 8
  %24 = getelementptr inbounds nuw %struct.ForEachState, ptr %9, i32 0, i32 0
  %25 = load ptr, ptr %24, align 8
  %26 = getelementptr inbounds nuw %struct.List, ptr %25, i32 0, i32 1
  %27 = load i32, ptr %26, align 4
  %28 = icmp slt i32 %23, %27
  br i1 %28, label %29, label %38

29:                                               ; preds = %21
  %30 = getelementptr inbounds nuw %struct.ForEachState, ptr %9, i32 0, i32 0
  %31 = load ptr, ptr %30, align 8
  %32 = getelementptr inbounds nuw %struct.List, ptr %31, i32 0, i32 3
  %33 = load ptr, ptr %32, align 8
  %34 = getelementptr inbounds nuw %struct.ForEachState, ptr %9, i32 0, i32 1
  %35 = load i32, ptr %34, align 8
  %36 = sext i32 %35 to i64
  %37 = getelementptr inbounds %union.ListCell, ptr %33, i64 %36
  store ptr %37, ptr %8, align 8
  br label %39

38:                                               ; preds = %21, %17
  store ptr null, ptr %8, align 8
  br label %39

39:                                               ; preds = %38, %29
  %40 = phi i32 [ 1, %29 ], [ 0, %38 ]
  %41 = icmp ne i32 %40, 0
  br i1 %41, label %43, label %42

42:                                               ; preds = %39
  store i32 2, ptr %10, align 4
  call void @llvm.lifetime.end.p0(i64 16, ptr %9) #8
  br label %65

43:                                               ; preds = %39
  call void @llvm.lifetime.start.p0(i64 8, ptr %11) #8
  %44 = load ptr, ptr %8, align 8
  %45 = load ptr, ptr %44, align 8
  store ptr %45, ptr %11, align 8
  call void @llvm.lifetime.start.p0(i64 8, ptr %12) #8
  %46 = load ptr, ptr %11, align 8
  %47 = getelementptr inbounds nuw %struct.TargetEntry, ptr %46, i32 0, i32 7
  %48 = load i8, ptr %47, align 2, !range !4, !noundef !5
  %49 = trunc i8 %48 to i1
  br i1 %49, label %50, label %51

50:                                               ; preds = %43
  store i32 4, ptr %10, align 4
  br label %58

51:                                               ; preds = %43
  %52 = load i32, ptr %6, align 4
  %53 = load ptr, ptr %11, align 8
  %54 = call ptr @makeVarFromTargetEntry(i32 noundef %52, ptr noundef %53)
  store ptr %54, ptr %12, align 8
  %55 = load ptr, ptr %7, align 8
  %56 = load ptr, ptr %12, align 8
  %57 = call ptr @lappend(ptr noundef %55, ptr noundef %56)
  store ptr %57, ptr %7, align 8
  store i32 0, ptr %10, align 4
  br label %58

58:                                               ; preds = %51, %50
  call void @llvm.lifetime.end.p0(i64 8, ptr %12) #8
  call void @llvm.lifetime.end.p0(i64 8, ptr %11) #8
  %59 = load i32, ptr %10, align 4
  switch i32 %59, label %67 [
    i32 0, label %60
    i32 4, label %61
  ]

60:                                               ; preds = %58
  br label %61

61:                                               ; preds = %60, %58
  %62 = getelementptr inbounds nuw %struct.ForEachState, ptr %9, i32 0, i32 1
  %63 = load i32, ptr %62, align 8
  %64 = add i32 %63, 1
  store i32 %64, ptr %62, align 8
  br label %17, !llvm.loop !8

65:                                               ; preds = %42
  %66 = load ptr, ptr %7, align 8
  store i32 1, ptr %10, align 4
  call void @llvm.lifetime.end.p0(i64 8, ptr %8) #8
  call void @llvm.lifetime.end.p0(i64 8, ptr %7) #8
  ret ptr %66

67:                                               ; preds = %58
  unreachable
}

; Function Attrs: inlinehint nounwind uwtable
define internal ptr @newNode(i64 noundef %0, i32 noundef %1) #5 {
  %3 = alloca i64, align 8
  %4 = alloca i32, align 4
  %5 = alloca ptr, align 8
  store i64 %0, ptr %3, align 8
  store i32 %1, ptr %4, align 4
  call void @llvm.lifetime.start.p0(i64 8, ptr %5) #8
  %6 = load i64, ptr %3, align 8
  %7 = call ptr @palloc0(i64 noundef %6)
  store ptr %7, ptr %5, align 8
  %8 = load i32, ptr %4, align 4
  %9 = load ptr, ptr %5, align 8
  %10 = getelementptr inbounds nuw %struct.Node, ptr %9, i32 0, i32 0
  store i32 %8, ptr %10, align 4
  %11 = load ptr, ptr %5, align 8
  call void @llvm.lifetime.end.p0(i64 8, ptr %5) #8
  ret ptr %11
}

; Function Attrs: inlinehint nounwind uwtable
define internal i32 @list_length(ptr noundef %0) #5 {
  %2 = alloca ptr, align 8
  store ptr %0, ptr %2, align 8
  %3 = load ptr, ptr %2, align 8
  %4 = icmp ne ptr %3, null
  br i1 %4, label %5, label %9

5:                                                ; preds = %1
  %6 = load ptr, ptr %2, align 8
  %7 = getelementptr inbounds nuw %struct.List, ptr %6, i32 0, i32 1
  %8 = load i32, ptr %7, align 4
  br label %10

9:                                                ; preds = %1
  br label %10

10:                                               ; preds = %9, %5
  %11 = phi i32 [ %8, %5 ], [ 0, %9 ]
  ret i32 %11
}

; Function Attrs: nounwind uwtable
define dso_local ptr @convert_ANY_sublink_to_join(ptr noundef %0, ptr noundef %1, ptr noundef %2) #0 {
  %4 = alloca ptr, align 8
  %5 = alloca ptr, align 8
  %6 = alloca ptr, align 8
  %7 = alloca ptr, align 8
  %8 = alloca ptr, align 8
  %9 = alloca ptr, align 8
  %10 = alloca ptr, align 8
  %11 = alloca ptr, align 8
  %12 = alloca i32, align 4
  %13 = alloca ptr, align 8
  %14 = alloca ptr, align 8
  %15 = alloca ptr, align 8
  %16 = alloca ptr, align 8
  %17 = alloca ptr, align 8
  %18 = alloca ptr, align 8
  %19 = alloca ptr, align 8
  %20 = alloca i8, align 1
  %21 = alloca i32, align 4
  store ptr %0, ptr %5, align 8
  store ptr %1, ptr %6, align 8
  store ptr %2, ptr %7, align 8
  call void @llvm.lifetime.start.p0(i64 8, ptr %8) #8
  call void @llvm.lifetime.start.p0(i64 8, ptr %9) #8
  %22 = load ptr, ptr %5, align 8
  %23 = getelementptr inbounds nuw %struct.PlannerInfo, ptr %22, i32 0, i32 1
  %24 = load ptr, ptr %23, align 8
  store ptr %24, ptr %9, align 8
  call void @llvm.lifetime.start.p0(i64 8, ptr %10) #8
  %25 = load ptr, ptr %6, align 8
  %26 = getelementptr inbounds nuw %struct.SubLink, ptr %25, i32 0, i32 5
  %27 = load ptr, ptr %26, align 8
  store ptr %27, ptr %10, align 8
  call void @llvm.lifetime.start.p0(i64 8, ptr %11) #8
  call void @llvm.lifetime.start.p0(i64 4, ptr %12) #8
  call void @llvm.lifetime.start.p0(i64 8, ptr %13) #8
  call void @llvm.lifetime.start.p0(i64 8, ptr %14) #8
  call void @llvm.lifetime.start.p0(i64 8, ptr %15) #8
  call void @llvm.lifetime.start.p0(i64 8, ptr %16) #8
  call void @llvm.lifetime.start.p0(i64 8, ptr %17) #8
  call void @llvm.lifetime.start.p0(i64 8, ptr %18) #8
  call void @llvm.lifetime.start.p0(i64 8, ptr %19) #8
  call void @llvm.lifetime.start.p0(i64 1, ptr %20) #8
  %28 = load ptr, ptr %10, align 8
  %29 = call ptr @pull_varnos_of_level(ptr noundef null, ptr noundef %28, i32 noundef 1)
  store ptr %29, ptr %19, align 8
  %30 = load ptr, ptr %19, align 8
  %31 = icmp eq ptr %30, null
  %32 = xor i1 %31, true
  %33 = zext i1 %32 to i8
  store i8 %33, ptr %20, align 1
  %34 = load ptr, ptr %19, align 8
  %35 = load ptr, ptr %7, align 8
  %36 = call zeroext i1 @bms_is_subset(ptr noundef %34, ptr noundef %35)
  br i1 %36, label %38, label %37

37:                                               ; preds = %3
  store ptr null, ptr %4, align 8
  store i32 1, ptr %21, align 4
  br label %118

38:                                               ; preds = %3
  %39 = load ptr, ptr %5, align 8
  %40 = load ptr, ptr %6, align 8
  %41 = getelementptr inbounds nuw %struct.SubLink, ptr %40, i32 0, i32 3
  %42 = load ptr, ptr %41, align 8
  %43 = call ptr @pull_varnos(ptr noundef %39, ptr noundef %42)
  store ptr %43, ptr %11, align 8
  %44 = load ptr, ptr %11, align 8
  %45 = icmp eq ptr %44, null
  br i1 %45, label %46, label %47

46:                                               ; preds = %38
  store ptr null, ptr %4, align 8
  store i32 1, ptr %21, align 4
  br label %118

47:                                               ; preds = %38
  %48 = load ptr, ptr %11, align 8
  %49 = load ptr, ptr %7, align 8
  %50 = call zeroext i1 @bms_is_subset(ptr noundef %48, ptr noundef %49)
  br i1 %50, label %52, label %51

51:                                               ; preds = %47
  store ptr null, ptr %4, align 8
  store i32 1, ptr %21, align 4
  br label %118

52:                                               ; preds = %47
  %53 = load ptr, ptr %6, align 8
  %54 = getelementptr inbounds nuw %struct.SubLink, ptr %53, i32 0, i32 3
  %55 = load ptr, ptr %54, align 8
  %56 = call zeroext i1 @contain_volatile_functions(ptr noundef %55)
  br i1 %56, label %57, label %58

57:                                               ; preds = %52
  store ptr null, ptr %4, align 8
  store i32 1, ptr %21, align 4
  br label %118

58:                                               ; preds = %52
  %59 = call ptr @make_parsestate(ptr noundef null)
  store ptr %59, ptr %18, align 8
  %60 = load ptr, ptr %18, align 8
  %61 = load ptr, ptr %10, align 8
  %62 = call ptr @makeAlias(ptr noundef @.str.3, ptr noundef null)
  %63 = load i8, ptr %20, align 1, !range !4, !noundef !5
  %64 = trunc i8 %63 to i1
  %65 = call ptr @addRangeTableEntryForSubquery(ptr noundef %60, ptr noundef %61, ptr noundef %62, i1 noundef zeroext %64, i1 noundef zeroext false)
  store ptr %65, ptr %13, align 8
  %66 = load ptr, ptr %13, align 8
  %67 = getelementptr inbounds nuw %struct.ParseNamespaceItem, ptr %66, i32 0, i32 1
  %68 = load ptr, ptr %67, align 8
  store ptr %68, ptr %14, align 8
  %69 = load ptr, ptr %9, align 8
  %70 = getelementptr inbounds nuw %struct.Query, ptr %69, i32 0, i32 19
  %71 = load ptr, ptr %70, align 8
  %72 = load ptr, ptr %14, align 8
  %73 = call ptr @lappend(ptr noundef %71, ptr noundef %72)
  %74 = load ptr, ptr %9, align 8
  %75 = getelementptr inbounds nuw %struct.Query, ptr %74, i32 0, i32 19
  store ptr %73, ptr %75, align 8
  %76 = load ptr, ptr %9, align 8
  %77 = getelementptr inbounds nuw %struct.Query, ptr %76, i32 0, i32 19
  %78 = load ptr, ptr %77, align 8
  %79 = call i32 @list_length(ptr noundef %78)
  store i32 %79, ptr %12, align 4
  %80 = call ptr @newNode(i64 noundef 8, i32 noundef 63)
  store ptr %80, ptr %15, align 8
  %81 = load i32, ptr %12, align 4
  %82 = load ptr, ptr %15, align 8
  %83 = getelementptr inbounds nuw %struct.RangeTblRef, ptr %82, i32 0, i32 1
  store i32 %81, ptr %83, align 4
  %84 = load ptr, ptr %5, align 8
  %85 = load ptr, ptr %10, align 8
  %86 = getelementptr inbounds nuw %struct.Query, ptr %85, i32 0, i32 25
  %87 = load ptr, ptr %86, align 8
  %88 = load i32, ptr %12, align 4
  %89 = call ptr @generate_subquery_vars(ptr noundef %84, ptr noundef %87, i32 noundef %88)
  store ptr %89, ptr %16, align 8
  %90 = load ptr, ptr %5, align 8
  %91 = load ptr, ptr %6, align 8
  %92 = getelementptr inbounds nuw %struct.SubLink, ptr %91, i32 0, i32 3
  %93 = load ptr, ptr %92, align 8
  %94 = load ptr, ptr %16, align 8
  %95 = call ptr @convert_testexpr(ptr noundef %90, ptr noundef %93, ptr noundef %94)
  store ptr %95, ptr %17, align 8
  %96 = call ptr @newNode(i64 noundef 72, i32 noundef 64)
  store ptr %96, ptr %8, align 8
  %97 = load ptr, ptr %8, align 8
  %98 = getelementptr inbounds nuw %struct.JoinExpr, ptr %97, i32 0, i32 1
  store i32 4, ptr %98, align 4
  %99 = load ptr, ptr %8, align 8
  %100 = getelementptr inbounds nuw %struct.JoinExpr, ptr %99, i32 0, i32 2
  store i8 0, ptr %100, align 8
  %101 = load ptr, ptr %8, align 8
  %102 = getelementptr inbounds nuw %struct.JoinExpr, ptr %101, i32 0, i32 3
  store ptr null, ptr %102, align 8
  %103 = load ptr, ptr %15, align 8
  %104 = load ptr, ptr %8, align 8
  %105 = getelementptr inbounds nuw %struct.JoinExpr, ptr %104, i32 0, i32 4
  store ptr %103, ptr %105, align 8
  %106 = load ptr, ptr %8, align 8
  %107 = getelementptr inbounds nuw %struct.JoinExpr, ptr %106, i32 0, i32 5
  store ptr null, ptr %107, align 8
  %108 = load ptr, ptr %8, align 8
  %109 = getelementptr inbounds nuw %struct.JoinExpr, ptr %108, i32 0, i32 6
  store ptr null, ptr %109, align 8
  %110 = load ptr, ptr %17, align 8
  %111 = load ptr, ptr %8, align 8
  %112 = getelementptr inbounds nuw %struct.JoinExpr, ptr %111, i32 0, i32 7
  store ptr %110, ptr %112, align 8
  %113 = load ptr, ptr %8, align 8
  %114 = getelementptr inbounds nuw %struct.JoinExpr, ptr %113, i32 0, i32 8
  store ptr null, ptr %114, align 8
  %115 = load ptr, ptr %8, align 8
  %116 = getelementptr inbounds nuw %struct.JoinExpr, ptr %115, i32 0, i32 9
  store i32 0, ptr %116, align 8
  %117 = load ptr, ptr %8, align 8
  store ptr %117, ptr %4, align 8
  store i32 1, ptr %21, align 4
  br label %118

118:                                              ; preds = %58, %57, %51, %46, %37
  call void @llvm.lifetime.end.p0(i64 1, ptr %20) #8
  call void @llvm.lifetime.end.p0(i64 8, ptr %19) #8
  call void @llvm.lifetime.end.p0(i64 8, ptr %18) #8
  call void @llvm.lifetime.end.p0(i64 8, ptr %17) #8
  call void @llvm.lifetime.end.p0(i64 8, ptr %16) #8
  call void @llvm.lifetime.end.p0(i64 8, ptr %15) #8
  call void @llvm.lifetime.end.p0(i64 8, ptr %14) #8
  call void @llvm.lifetime.end.p0(i64 8, ptr %13) #8
  call void @llvm.lifetime.end.p0(i64 4, ptr %12) #8
  call void @llvm.lifetime.end.p0(i64 8, ptr %11) #8
  call void @llvm.lifetime.end.p0(i64 8, ptr %10) #8
  call void @llvm.lifetime.end.p0(i64 8, ptr %9) #8
  call void @llvm.lifetime.end.p0(i64 8, ptr %8) #8
  %119 = load ptr, ptr %4, align 8
  ret ptr %119
}