; Function Attrs: nounwind uwtable
define dso_local noundef ptr @convert_ANY_sublink_to_join(ptr noundef %0, ptr noundef readonly captures(none) %1, ptr noundef %2) local_unnamed_addr #0 {
  %4 = alloca %struct.convert_testexpr_context, align 8
  %5 = getelementptr inbounds nuw i8, ptr %0, i64 8
  %6 = load ptr, ptr %5, align 8
  %7 = getelementptr inbounds nuw i8, ptr %1, i64 32
  %8 = load ptr, ptr %7, align 8
  %9 = tail call ptr @pull_varnos_of_level(ptr noundef null, ptr noundef %8, i32 noundef 1) #10
  %10 = icmp ne ptr %9, null
  %11 = tail call zeroext i1 @bms_is_subset(ptr noundef %9, ptr noundef %2) #10
  br i1 %11, label %12, label %69

12:                                               ; preds = %3
  %13 = getelementptr inbounds nuw i8, ptr %1, i64 16
  %14 = load ptr, ptr %13, align 8
  %15 = tail call ptr @pull_varnos(ptr noundef nonnull %0, ptr noundef %14) #10
  %16 = icmp eq ptr %15, null
  br i1 %16, label %69, label %17

17:                                               ; preds = %12
  %18 = tail call zeroext i1 @bms_is_subset(ptr noundef nonnull %15, ptr noundef %2) #10
  br i1 %18, label %19, label %69

19:                                               ; preds = %17
  %20 = load ptr, ptr %13, align 8
  %21 = tail call zeroext i1 @contain_volatile_functions(ptr noundef %20) #10
  br i1 %21, label %69, label %22

22:                                               ; preds = %19
  %23 = tail call ptr @make_parsestate(ptr noundef null) #10
  %24 = tail call ptr @makeAlias(ptr noundef nonnull @.str.3, ptr noundef null) #10
  %25 = tail call ptr @addRangeTableEntryForSubquery(ptr noundef %23, ptr noundef %8, ptr noundef %24, i1 noundef zeroext %10, i1 noundef zeroext false) #10
  %26 = getelementptr inbounds nuw i8, ptr %25, i64 8
  %27 = load ptr, ptr %26, align 8
  %28 = getelementptr inbounds nuw i8, ptr %6, i64 64
  %29 = load ptr, ptr %28, align 8
  %30 = tail call ptr @lappend(ptr noundef %29, ptr noundef %27) #10
  store ptr %30, ptr %28, align 8
  %.not.i = icmp eq ptr %30, null
  br i1 %.not.i, label %list_length.exit, label %31

31:                                               ; preds = %22
  %32 = getelementptr inbounds nuw i8, ptr %30, i64 4
  %33 = load i32, ptr %32, align 4
  br label %list_length.exit

list_length.exit:                                 ; preds = %22, %31
  %34 = phi i32 [ %33, %31 ], [ 0, %22 ]
  %35 = tail call noundef ptr @palloc0(i64 noundef 8) #10
  store i32 63, ptr %35, align 4
  %36 = getelementptr inbounds nuw i8, ptr %35, i64 4
  store i32 %34, ptr %36, align 4
  %37 = getelementptr inbounds nuw i8, ptr %8, i64 112
  %38 = load ptr, ptr %37, align 8
  %39 = getelementptr inbounds nuw i8, ptr %38, i64 4
  %.not.i41 = icmp eq ptr %38, null
  br i1 %.not.i41, label %generate_subquery_vars.exit, label %.lr.ph.i

.lr.ph.i:                                         ; preds = %list_length.exit
  %40 = getelementptr inbounds nuw i8, ptr %38, i64 16
  %41 = load i32, ptr %39, align 4
  %42 = icmp sgt i32 %41, 0
  br i1 %42, label %.lr.ph10.i, label %generate_subquery_vars.exit

.lr.ph10.i:                                       ; preds = %.lr.ph.i, %53
  %43 = phi i32 [ %54, %53 ], [ %41, %.lr.ph.i ]
  %indvars.iv.i = phi i64 [ %indvars.iv.next.i, %53 ], [ 0, %.lr.ph.i ]
  %.048.i = phi ptr [ %.1.i, %53 ], [ null, %.lr.ph.i ]
  %44 = load ptr, ptr %40, align 8
  %45 = getelementptr inbounds nuw %union.ListCell, ptr %44, i64 %indvars.iv.i
  %46 = load ptr, ptr %45, align 8
  %47 = getelementptr inbounds nuw i8, ptr %46, i64 42
  %48 = load i8, ptr %47, align 2, !range !4, !noundef !5
  %49 = trunc nuw i8 %48 to i1
  br i1 %49, label %53, label %50

50:                                               ; preds = %.lr.ph10.i
  %51 = tail call ptr @makeVarFromTargetEntry(i32 noundef %34, ptr noundef nonnull %46) #10
  %52 = tail call ptr @lappend(ptr noundef %.048.i, ptr noundef %51) #10
  %.pre.i = load i32, ptr %39, align 4
  br label %53

53:                                               ; preds = %50, %.lr.ph10.i
  %54 = phi i32 [ %.pre.i, %50 ], [ %43, %.lr.ph10.i ]
  %.1.i = phi ptr [ %52, %50 ], [ %.048.i, %.lr.ph10.i ]
  %indvars.iv.next.i = add nuw nsw i64 %indvars.iv.i, 1
  %55 = sext i32 %54 to i64
  %56 = icmp slt i64 %indvars.iv.next.i, %55
  br i1 %56, label %.lr.ph10.i, label %generate_subquery_vars.exit

generate_subquery_vars.exit:                      ; preds = %53, %list_length.exit, %.lr.ph.i
  %.0.lcssa.i = phi ptr [ null, %list_length.exit ], [ null, %.lr.ph.i ], [ %.1.i, %53 ]
  %57 = load ptr, ptr %13, align 8
  call void @llvm.lifetime.start.p0(i64 16, ptr nonnull %4) #10
  store ptr %0, ptr %4, align 8
  %58 = getelementptr inbounds nuw i8, ptr %4, i64 8
  store ptr %.0.lcssa.i, ptr %58, align 8
  %59 = call ptr @convert_testexpr_mutator(ptr noundef %57, ptr noundef nonnull %4)
  call void @llvm.lifetime.end.p0(i64 16, ptr nonnull %4) #10
  %60 = call noundef ptr @palloc0(i64 noundef 72) #10
  store i32 64, ptr %60, align 4
  %61 = getelementptr inbounds nuw i8, ptr %60, i64 4
  store i32 4, ptr %61, align 4
  %62 = getelementptr inbounds nuw i8, ptr %60, i64 8
  store i8 0, ptr %62, align 8
  %63 = getelementptr inbounds nuw i8, ptr %60, i64 16
  store ptr null, ptr %63, align 8
  %64 = getelementptr inbounds nuw i8, ptr %60, i64 24
  store ptr %35, ptr %64, align 8
  %65 = getelementptr inbounds nuw i8, ptr %60, i64 32
  %66 = getelementptr inbounds nuw i8, ptr %60, i64 48
  call void @llvm.memset.p0.i64(ptr noundef nonnull align 8 dereferenceable(16) %65, i8 0, i64 16, i1 false)
  store ptr %59, ptr %66, align 8
  %67 = getelementptr inbounds nuw i8, ptr %60, i64 56
  store ptr null, ptr %67, align 8
  %68 = getelementptr inbounds nuw i8, ptr %60, i64 64
  store i32 0, ptr %68, align 8
  br label %69

69:                                               ; preds = %19, %17, %12, %3, %generate_subquery_vars.exit
  %.0 = phi ptr [ %60, %generate_subquery_vars.exit ], [ null, %3 ], [ null, %12 ], [ null, %17 ], [ null, %19 ]
  ret ptr %.0
}